target datalayout = "e-m:e-p270:32:32-p271:32:32-p272:64:64-i64:64-i128:128-f80:128-n8:16:32:64-S128"
target triple = "x86_64-pc-linux-gnu"

%struct._zval_struct = type { %union._zend_value, %union.anon, %union.anon.2 }
%union._zend_value = type { i64 }
%union.anon = type { i32 }
%union.anon.2 = type { i32 }
%struct._zend_refcounted_h = type { i32, %union.anon.3 }
%union.anon.3 = type { i32 }
%struct._zend_reference = type { %struct._zend_refcounted_h, %struct._zval_struct, %union.zend_property_info_source_list }
%union.zend_property_info_source_list = type { ptr }
%struct.anon.0 = type { i8, i8, %union.anon.1 }
%union.anon.1 = type { i16 }
%struct.PHP_XXH64_CTX = type { %struct.XXH_NAMESPACEXXH64_state_s }
%struct.XXH_NAMESPACEXXH64_state_s = type { i64, [4 x i64], [4 x i64], i32, i32, i64 }

@.str.2 = private unnamed_addr constant [5 x i8] c"seed\00", align 1
@.str.3 = private unnamed_addr constant [102 x i8] c"Passing a seed of a type other than int is deprecated because it is the same as setting the seed to 0\00", align 1

; Function Attrs: nounwind uwtable
define internal ptr @XXH_memcpy(ptr noundef %0, ptr noundef %1, i64 noundef %2) #0 {
  %4 = alloca ptr, align 8
  %5 = alloca ptr, align 8
  %6 = alloca i64, align 8
  store ptr %0, ptr %4, align 8, !tbaa !4
  store ptr %1, ptr %5, align 8, !tbaa !4
  store i64 %2, ptr %6, align 8, !tbaa !15
  %7 = load ptr, ptr %4, align 8, !tbaa !4
  %8 = load ptr, ptr %5, align 8, !tbaa !4
  %9 = load i64, ptr %6, align 8, !tbaa !15
  call void @llvm.memcpy.p0.p0.i64(ptr align 1 %7, ptr align 1 %8, i64 %9, i1 false)
  ret ptr %7
}

; Function Attrs: inlinehint nounwind uwtable
define internal i32 @XXH_INLINE_XXH64_reset(ptr noundef %0, i64 noundef %1) #5 {
  %3 = alloca ptr, align 8
  %4 = alloca i64, align 8
  %5 = alloca %struct.XXH_NAMESPACEXXH64_state_s, align 8
  store ptr %0, ptr %3, align 8, !tbaa !44
  store i64 %1, ptr %4, align 8, !tbaa !15
  call void @llvm.lifetime.start.p0(i64 88, ptr %5) #14
  call void @llvm.memset.p0.i64(ptr align 8 %5, i8 0, i64 88, i1 false)
  %6 = load i64, ptr %4, align 8, !tbaa !15
  %7 = add i64 %6, -7046029288634856825
  %8 = add i64 %7, -4417276706812531889
  %9 = getelementptr inbounds nuw %struct.XXH_NAMESPACEXXH64_state_s, ptr %5, i32 0, i32 1
  %10 = getelementptr inbounds [4 x i64], ptr %9, i64 0, i64 0
  store i64 %8, ptr %10, align 8, !tbaa !15
  %11 = load i64, ptr %4, align 8, !tbaa !15
  %12 = add i64 %11, -4417276706812531889
  %13 = getelementptr inbounds nuw %struct.XXH_NAMESPACEXXH64_state_s, ptr %5, i32 0, i32 1
  %14 = getelementptr inbounds [4 x i64], ptr %13, i64 0, i64 1
  store i64 %12, ptr %14, align 8, !tbaa !15
  %15 = load i64, ptr %4, align 8, !tbaa !15
  %16 = add i64 %15, 0
  %17 = getelementptr inbounds nuw %struct.XXH_NAMESPACEXXH64_state_s, ptr %5, i32 0, i32 1
  %18 = getelementptr inbounds [4 x i64], ptr %17, i64 0, i64 2
  store i64 %16, ptr %18, align 8, !tbaa !15
  %19 = load i64, ptr %4, align 8, !tbaa !15
  %20 = sub i64 %19, -7046029288634856825
  %21 = getelementptr inbounds nuw %struct.XXH_NAMESPACEXXH64_state_s, ptr %5, i32 0, i32 1
  %22 = getelementptr inbounds [4 x i64], ptr %21, i64 0, i64 3
  store i64 %20, ptr %22, align 8, !tbaa !15
  %23 = load ptr, ptr %3, align 8, !tbaa !44
  %24 = call ptr @XXH_memcpy(ptr noundef %23, ptr noundef %5, i64 noundef 80)
  call void @llvm.lifetime.end.p0(i64 88, ptr %5) #14
  ret i32 0
}

; Function Attrs: alwaysinline nounwind uwtable
define internal zeroext i8 @zval_get_type(ptr noundef %0) #4 {
  %2 = alloca ptr, align 8
  store ptr %0, ptr %2, align 8, !tbaa !10
  %3 = load ptr, ptr %2, align 8, !tbaa !10
  %4 = getelementptr inbounds nuw %struct._zval_struct, ptr %3, i32 0, i32 1
  %5 = getelementptr inbounds nuw %struct.anon.0, ptr %4, i32 0, i32 0
  %6 = load i8, ptr %5, align 8, !tbaa !12
  ret i8 %6
}

; Function Attrs: alwaysinline nounwind uwtable
define internal ptr @zend_hash_str_find_deref(ptr noundef %0, ptr noundef %1, i64 noundef %2) #4 {
  %4 = alloca ptr, align 8
  %5 = alloca ptr, align 8
  %6 = alloca i64, align 8
  %7 = alloca ptr, align 8
  store ptr %0, ptr %4, align 8, !tbaa !8
  store ptr %1, ptr %5, align 8, !tbaa !13
  store i64 %2, ptr %6, align 8, !tbaa !15
  call void @llvm.lifetime.start.p0(i64 8, ptr %7) #14
  %8 = load ptr, ptr %4, align 8, !tbaa !8
  %9 = load ptr, ptr %5, align 8, !tbaa !13
  %10 = load i64, ptr %6, align 8, !tbaa !15
  %11 = call ptr @zend_hash_str_find(ptr noundef %8, ptr noundef %9, i64 noundef %10)
  store ptr %11, ptr %7, align 8, !tbaa !10
  %12 = load ptr, ptr %7, align 8, !tbaa !10
  %13 = icmp ne ptr %12, null
  br i1 %13, label %14, label %34

14:                                               ; preds = %3
  br label %15

15:                                               ; preds = %14
  %16 = load ptr, ptr %7, align 8, !tbaa !10
  %17 = call zeroext i8 @zval_get_type(ptr noundef %16)
  %18 = zext i8 %17 to i32
  %19 = icmp eq i32 %18, 10
  %20 = xor i1 %19, true
  %21 = xor i1 %20, true
  %22 = zext i1 %21 to i32
  %23 = sext i32 %22 to i64
  %24 = call i64 @llvm.expect.i64(i64 %23, i64 0)
  %25 = icmp ne i64 %24, 0
  br i1 %25, label %26, label %31

26:                                               ; preds = %15
  %27 = load ptr, ptr %7, align 8, !tbaa !10
  %28 = getelementptr inbounds nuw %struct._zval_struct, ptr %27, i32 0, i32 0
  %29 = load ptr, ptr %28, align 8, !tbaa !12
  %30 = getelementptr inbounds nuw %struct._zend_reference, ptr %29, i32 0, i32 1
  store ptr %30, ptr %7, align 8, !tbaa !10
  br label %31

31:                                               ; preds = %26, %15
  br label %32

32:                                               ; preds = %31
  br label %33

33:                                               ; preds = %32
  br label %34

34:                                               ; preds = %33, %3
  %35 = load ptr, ptr %7, align 8, !tbaa !10
  call void @llvm.lifetime.end.p0(i64 8, ptr %7) #14
  ret ptr %35
}

; Function Attrs: nounwind uwtable
define dso_local void @PHP_XXH64Init(ptr noundef %0, ptr noundef %1) #0 {
  %3 = alloca ptr, align 8
  %4 = alloca ptr, align 8
  %5 = alloca ptr, align 8
  %6 = alloca i32, align 4
  store ptr %0, ptr %3, align 8, !tbaa !4
  store ptr %1, ptr %4, align 8, !tbaa !8
  %7 = load ptr, ptr %3, align 8, !tbaa !4
  %8 = getelementptr inbounds nuw %struct.PHP_XXH64_CTX, ptr %7, i32 0, i32 0
  call void @llvm.memset.p0.i64(ptr align 8 %8, i8 0, i64 88, i1 false)
  %9 = load ptr, ptr %4, align 8, !tbaa !8
  %10 = icmp ne ptr %9, null
  br i1 %10, label %11, label %33

11:                                               ; preds = %2
  call void @llvm.lifetime.start.p0(i64 8, ptr %5) #14
  %12 = load ptr, ptr %4, align 8, !tbaa !8
  %13 = call ptr @zend_hash_str_find_deref(ptr noundef %12, ptr noundef @.str.2, i64 noundef 4)
  store ptr %13, ptr %5, align 8, !tbaa !10
  %14 = load ptr, ptr %5, align 8, !tbaa !10
  %15 = icmp ne ptr %14, null
  br i1 %15, label %16, label %28

16:                                               ; preds = %11
  %17 = load ptr, ptr %5, align 8, !tbaa !10
  %18 = call zeroext i8 @zval_get_type(ptr noundef %17)
  %19 = zext i8 %18 to i32
  %20 = icmp eq i32 4, %19
  br i1 %20, label %21, label %28

21:                                               ; preds = %16
  %22 = load ptr, ptr %3, align 8, !tbaa !4
  %23 = getelementptr inbounds nuw %struct.PHP_XXH64_CTX, ptr %22, i32 0, i32 0
  %24 = load ptr, ptr %5, align 8, !tbaa !10
  %25 = getelementptr inbounds nuw %struct._zval_struct, ptr %24, i32 0, i32 0
  %26 = load i64, ptr %25, align 8, !tbaa !12
  %27 = call i32 @XXH_INLINE_XXH64_reset(ptr noundef %23, i64 noundef %26)
  store i32 1, ptr %6, align 4
  br label %30

28:                                               ; preds = %16, %11
  call void (ptr, i32, ptr, ...) @php_error_docref(ptr noundef null, i32 noundef 8192, ptr noundef @.str.3)
  br label %29

29:                                               ; preds = %28
  store i32 0, ptr %6, align 4
  br label %30

30:                                               ; preds = %29, %21
  call void @llvm.lifetime.end.p0(i64 8, ptr %5) #14
  %31 = load i32, ptr %6, align 4
  switch i32 %31, label %38 [
    i32 0, label %32
    i32 1, label %37
  ]

32:                                               ; preds = %30
  br label %33

33:                                               ; preds = %32, %2
  %34 = load ptr, ptr %3, align 8, !tbaa !4
  %35 = getelementptr inbounds nuw %struct.PHP_XXH64_CTX, ptr %34, i32 0, i32 0
  %36 = call i32 @XXH_INLINE_XXH64_reset(ptr noundef %35, i64 noundef 0)
  br label %37

37:                                               ; preds = %33, %30
  ret void

38:                                               ; preds = %30
  unreachable
}