; Function Attrs: nounwind uwtable
define dso_local void @PHP_XXH64Init(ptr noundef writeonly captures(none) initializes((0, 88)) %0, ptr noundef %1) #0 {
  tail call void @llvm.memset.p0.i64(ptr noundef nonnull align 8 dereferenceable(88) %0, i8 0, i64 88, i1 false)
  %.not = icmp eq ptr %1, null
  br i1 %.not, label %20, label %3

3:                                                ; preds = %2
  %4 = tail call ptr @zend_hash_str_find(ptr noundef nonnull %1, ptr noundef nonnull @.str.2, i64 noundef 4) #16
  %.not.i = icmp eq ptr %4, null
  br i1 %.not.i, label %.thread, label %5

5:                                                ; preds = %3
  %6 = getelementptr inbounds nuw i8, ptr %4, i64 8
  %7 = load i8, ptr %6, align 8, !tbaa !4
  %8 = icmp eq i8 %7, 10
  br i1 %8, label %9, label %12, !prof !7

9:                                                ; preds = %5
  %10 = load ptr, ptr %4, align 8, !tbaa !4
  %11 = getelementptr inbounds nuw i8, ptr %10, i64 8
  %.phi.trans.insert = getelementptr inbounds nuw i8, ptr %10, i64 16
  %.pre = load i8, ptr %.phi.trans.insert, align 8, !tbaa !4
  br label %12

12:                                               ; preds = %9, %5
  %13 = phi i8 [ %7, %5 ], [ %.pre, %9 ]
  %.0.i.ph = phi ptr [ %4, %5 ], [ %11, %9 ]
  %14 = icmp eq i8 %13, 4
  br i1 %14, label %15, label %.thread

.thread:                                          ; preds = %12, %3
  tail call void (ptr, i32, ptr, ...) @php_error_docref(ptr noundef null, i32 noundef 8192, ptr noundef nonnull @.str.3) #16
  br label %20

15:                                               ; preds = %12
  %16 = load i64, ptr %.0.i.ph, align 8, !tbaa !4
  %17 = add i64 %16, 6983438078262162902
  %18 = add i64 %16, -4417276706812531889
  %19 = add i64 %16, 7046029288634856825
  br label %20

20:                                               ; preds = %2, %.thread, %15
  %.sink23 = phi i64 [ %17, %15 ], [ 6983438078262162902, %.thread ], [ 6983438078262162902, %2 ]
  %.sink22 = phi i64 [ %18, %15 ], [ -4417276706812531889, %.thread ], [ -4417276706812531889, %2 ]
  %.sink21 = phi i64 [ %16, %15 ], [ 0, %.thread ], [ 0, %2 ]
  %.sink = phi i64 [ %19, %15 ], [ 7046029288634856825, %.thread ], [ 7046029288634856825, %2 ]
  store i64 0, ptr %0, align 1
  %.sroa.4.0..sroa_idx.i = getelementptr inbounds nuw i8, ptr %0, i64 8
  store i64 %.sink23, ptr %.sroa.4.0..sroa_idx.i, align 1
  %.sroa.5.0..sroa_idx.i = getelementptr inbounds nuw i8, ptr %0, i64 16
  store i64 %.sink22, ptr %.sroa.5.0..sroa_idx.i, align 1
  %.sroa.6.0..sroa_idx.i = getelementptr inbounds nuw i8, ptr %0, i64 24
  store i64 %.sink21, ptr %.sroa.6.0..sroa_idx.i, align 1
  %.sroa.7.0..sroa_idx.i = getelementptr inbounds nuw i8, ptr %0, i64 32
  store i64 %.sink, ptr %.sroa.7.0..sroa_idx.i, align 1
  %.sroa.8.0..sroa_idx.i = getelementptr inbounds nuw i8, ptr %0, i64 40
  tail call void @llvm.memset.p0.i64(ptr noundef nonnull align 1 dereferenceable(40) %.sroa.8.0..sroa_idx.i, i8 0, i64 40, i1 false)
  ret void
}